
XC8Application1.elf:     file format elf32-avr

Sections:
Idx Name          Size      VMA       LMA       File off  Algn
  0 .data         00000000  00800100  00800100  000002da  2**0
                  ALLOC, LOAD, DATA
  1 .text         000000be  00000000  00000000  00000074  2**1
                  CONTENTS, ALLOC, LOAD, READONLY, CODE
  2 .comment      0000002f  00000000  00000000  000002da  2**0
                  CONTENTS, READONLY
  3 .debug_info   000005f4  00000000  00000000  00000309  2**0
                  CONTENTS, READONLY, DEBUGGING
  4 .debug_abbrev 000005a2  00000000  00000000  000008fd  2**0
                  CONTENTS, READONLY, DEBUGGING
  5 .debug_line   00000137  00000000  00000000  00000e9f  2**0
                  CONTENTS, READONLY, DEBUGGING
  6 .debug_str    00000208  00000000  00000000  00000fd6  2**0
                  CONTENTS, READONLY, DEBUGGING
  7 .text         00000002  00000246  00000246  000002ba  2**1
                  CONTENTS, ALLOC, LOAD, READONLY, CODE
  8 .note.gnu.avr.deviceinfo 00000040  00000000  00000000  000011e0  2**2
                  CONTENTS, READONLY, DEBUGGING
  9 .text.request 00000022  00000138  00000138  000001ac  2**1
                  CONTENTS, ALLOC, LOAD, READONLY, CODE
 10 .text.check_response 00000026  0000015a  0000015a  000001ce  2**1
                  CONTENTS, ALLOC, LOAD, READONLY, CODE
 11 .text.read_byte 00000024  00000114  00000114  00000188  2**1
                  CONTENTS, ALLOC, LOAD, READONLY, CODE
 12 .text.startup.main 00000056  000000be  000000be  00000132  2**1
                  CONTENTS, ALLOC, LOAD, READONLY, CODE
 13 .text.I2C_Read 00000014  00000232  00000232  000002a6  2**1
                  CONTENTS, ALLOC, LOAD, READONLY, CODE
 14 .text.__vector_11 0000001e  00000248  00000248  000002bc  2**1
                  CONTENTS, ALLOC, LOAD, READONLY, CODE
 15 .text.init_reloj 00000038  000001fa  000001fa  0000026e  2**1
                  CONTENTS, ALLOC, LOAD, READONLY, CODE
 16 .text.tarea_foreground 0000007a  00000180  00000180  000001f4  2**1
                  CONTENTS, ALLOC, LOAD, READONLY, CODE
 17 .bss.flag_1seg 00000001  00800100  00800100  000002da  2**0
                  ALLOC

Disassembly of section .text:

00000000 <__vectors>:
   0:	36 c0       	rjmp	.+108    	; 0x6e <__ctors_end>
   2:	00 00       	nop
   4:	20 c1       	rjmp	.+576    	; 0x246 <__bad_interrupt>
   6:	00 00       	nop
   8:	1e c1       	rjmp	.+572    	; 0x246 <__bad_interrupt>
   a:	00 00       	nop
   c:	1c c1       	rjmp	.+568    	; 0x246 <__bad_interrupt>
   e:	00 00       	nop
  10:	1a c1       	rjmp	.+564    	; 0x246 <__bad_interrupt>
  12:	00 00       	nop
  14:	18 c1       	rjmp	.+560    	; 0x246 <__bad_interrupt>
  16:	00 00       	nop
  18:	16 c1       	rjmp	.+556    	; 0x246 <__bad_interrupt>
  1a:	00 00       	nop
  1c:	14 c1       	rjmp	.+552    	; 0x246 <__bad_interrupt>
  1e:	00 00       	nop
  20:	12 c1       	rjmp	.+548    	; 0x246 <__bad_interrupt>
  22:	00 00       	nop
  24:	10 c1       	rjmp	.+544    	; 0x246 <__bad_interrupt>
  26:	00 00       	nop
  28:	0e c1       	rjmp	.+540    	; 0x246 <__bad_interrupt>
  2a:	00 00       	nop
  2c:	0d c1       	rjmp	.+538    	; 0x248 <__vector_11>
  2e:	00 00       	nop
  30:	0a c1       	rjmp	.+532    	; 0x246 <__bad_interrupt>
  32:	00 00       	nop
  34:	08 c1       	rjmp	.+528    	; 0x246 <__bad_interrupt>
  36:	00 00       	nop
  38:	06 c1       	rjmp	.+524    	; 0x246 <__bad_interrupt>
  3a:	00 00       	nop
  3c:	04 c1       	rjmp	.+520    	; 0x246 <__bad_interrupt>
  3e:	00 00       	nop
  40:	02 c1       	rjmp	.+516    	; 0x246 <__bad_interrupt>
  42:	00 00       	nop
  44:	00 c1       	rjmp	.+512    	; 0x246 <__bad_interrupt>
  46:	00 00       	nop
  48:	fe c0       	rjmp	.+508    	; 0x246 <__bad_interrupt>
  4a:	00 00       	nop
  4c:	fc c0       	rjmp	.+504    	; 0x246 <__bad_interrupt>
  4e:	00 00       	nop
  50:	fa c0       	rjmp	.+500    	; 0x246 <__bad_interrupt>
  52:	00 00       	nop
  54:	f8 c0       	rjmp	.+496    	; 0x246 <__bad_interrupt>
  56:	00 00       	nop
  58:	f6 c0       	rjmp	.+492    	; 0x246 <__bad_interrupt>
  5a:	00 00       	nop
  5c:	f4 c0       	rjmp	.+488    	; 0x246 <__bad_interrupt>
  5e:	00 00       	nop
  60:	f2 c0       	rjmp	.+484    	; 0x246 <__bad_interrupt>
  62:	00 00       	nop
  64:	f0 c0       	rjmp	.+480    	; 0x246 <__bad_interrupt>
	...

00000068 <.dinit>:
  68:	01 00       	.word	0x0001	; ????
  6a:	01 01       	movw	r0, r2
  6c:	80 00       	.word	0x0080	; ????

0000006e <__ctors_end>:
  6e:	11 24       	eor	r1, r1
  70:	1f be       	out	0x3f, r1	; 63
  72:	cf ef       	ldi	r28, 0xFF	; 255
  74:	d8 e0       	ldi	r29, 0x08	; 8
  76:	de bf       	out	0x3e, r29	; 62
  78:	cd bf       	out	0x3d, r28	; 61

0000007a <__do_copy_data>:
  7a:	e8 e6       	ldi	r30, 0x68	; 104
  7c:	f0 e0       	ldi	r31, 0x00	; 0
  7e:	40 e0       	ldi	r20, 0x00	; 0
  80:	17 c0       	rjmp	.+46     	; 0xb0 <__do_clear_bss+0x8>
  82:	b5 91       	lpm	r27, Z+
  84:	a5 91       	lpm	r26, Z+
  86:	35 91       	lpm	r19, Z+
  88:	25 91       	lpm	r18, Z+
  8a:	05 91       	lpm	r16, Z+
  8c:	07 fd       	sbrc	r16, 7
  8e:	0c c0       	rjmp	.+24     	; 0xa8 <__do_clear_bss>
  90:	95 91       	lpm	r25, Z+
  92:	85 91       	lpm	r24, Z+
  94:	ef 01       	movw	r28, r30
  96:	f9 2f       	mov	r31, r25
  98:	e8 2f       	mov	r30, r24
  9a:	05 90       	lpm	r0, Z+
  9c:	0d 92       	st	X+, r0
  9e:	a2 17       	cp	r26, r18
  a0:	b3 07       	cpc	r27, r19
  a2:	d9 f7       	brne	.-10     	; 0x9a <__do_copy_data+0x20>
  a4:	fe 01       	movw	r30, r28
  a6:	04 c0       	rjmp	.+8      	; 0xb0 <__do_clear_bss+0x8>

000000a8 <__do_clear_bss>:
  a8:	1d 92       	st	X+, r1
  aa:	a2 17       	cp	r26, r18
  ac:	b3 07       	cpc	r27, r19
  ae:	e1 f7       	brne	.-8      	; 0xa8 <__do_clear_bss>
  b0:	ed 36       	cpi	r30, 0x6D	; 109
  b2:	f4 07       	cpc	r31, r20
  b4:	31 f7       	brne	.-52     	; 0x82 <__do_copy_data+0x8>
  b6:	03 d0       	rcall	.+6      	; 0xbe <_etext>
  b8:	00 c0       	rjmp	.+0      	; 0xba <_exit>

000000ba <_exit>:
  ba:	f8 94       	cli

000000bc <__stop_program>:
  bc:	ff cf       	rjmp	.-2      	; 0xbc <__stop_program>

Disassembly of section .text:

00000246 <__bad_interrupt>:
 246:	dc ce       	rjmp	.-584    	; 0x0 <__vectors>

Disassembly of section .text.request:

00000138 <request>:
 138:	38 9a       	sbi	0x07, 0	; 7
 13a:	40 98       	cbi	0x08, 0	; 8
 13c:	2f ef       	ldi	r18, 0xFF	; 255
 13e:	80 ee       	ldi	r24, 0xE0	; 224
 140:	90 e0       	ldi	r25, 0x00	; 0
 142:	21 50       	subi	r18, 0x01	; 1
 144:	80 40       	sbci	r24, 0x00	; 0
 146:	90 40       	sbci	r25, 0x00	; 0
 148:	e1 f7       	brne	.-8      	; 0x142 <request+0xa>
 14a:	00 c0       	rjmp	.+0      	; 0x14c <request+0x14>
 14c:	00 00       	nop
 14e:	40 9a       	sbi	0x08, 0	; 8
 150:	20 ea       	ldi	r18, 0xA0	; 160
 152:	2a 95       	dec	r18
 154:	f1 f7       	brne	.-4      	; 0x152 <request+0x1a>
 156:	38 98       	cbi	0x07, 0	; 7
 158:	08 95       	ret

Disassembly of section .text.check_response:

0000015a <check_response>:
 15a:	85 ed       	ldi	r24, 0xD5	; 213
 15c:	8a 95       	dec	r24
 15e:	f1 f7       	brne	.-4      	; 0x15c <check_response+0x2>
 160:	00 00       	nop
 162:	30 9b       	sbis	0x06, 0	; 6
 164:	02 c0       	rjmp	.+4      	; 0x16a <check_response+0x10>
 166:	80 e0       	ldi	r24, 0x00	; 0
 168:	08 95       	ret
 16a:	8f e3       	ldi	r24, 0x3F	; 63
 16c:	91 e0       	ldi	r25, 0x01	; 1
 16e:	01 97       	sbiw	r24, 0x01	; 1
 170:	f1 f7       	brne	.-4      	; 0x16e <check_response+0x14>
 172:	00 c0       	rjmp	.+0      	; 0x174 <check_response+0x1a>
 174:	00 00       	nop
 176:	86 b1       	in	r24, 0x06	; 6
 178:	81 70       	andi	r24, 0x01	; 1
 17a:	30 99       	sbic	0x06, 0	; 6
 17c:	fe cf       	rjmp	.-4      	; 0x17a <check_response+0x20>
 17e:	08 95       	ret

Disassembly of section .text.read_byte:

00000114 <read_byte>:
 114:	28 e0       	ldi	r18, 0x08	; 8
 116:	30 e0       	ldi	r19, 0x00	; 0
 118:	80 e0       	ldi	r24, 0x00	; 0
 11a:	30 9b       	sbis	0x06, 0	; 6
 11c:	fe cf       	rjmp	.-4      	; 0x11a <read_byte+0x6>
 11e:	90 ea       	ldi	r25, 0xA0	; 160
 120:	9a 95       	dec	r25
 122:	f1 f7       	brne	.-4      	; 0x120 <read_byte+0xc>
 124:	88 0f       	add	r24, r24
 126:	30 9b       	sbis	0x06, 0	; 6
 128:	03 c0       	rjmp	.+6      	; 0x130 <read_byte+0x1c>
 12a:	81 60       	ori	r24, 0x01	; 1
 12c:	30 99       	sbic	0x06, 0	; 6
 12e:	fe cf       	rjmp	.-4      	; 0x12c <read_byte+0x18>
 130:	21 50       	subi	r18, 0x01	; 1
 132:	31 09       	sbc	r19, r1
 134:	91 f7       	brne	.-28     	; 0x11a <read_byte+0x6>
 136:	08 95       	ret

Disassembly of section .text.startup.main:

000000be <main>:
  be:	9d d0       	rcall	.+314    	; 0x1fa <init_reloj>
  c0:	78 94       	sei
  c2:	56 9a       	sbi	0x0a, 6	; 10
  c4:	57 9a       	sbi	0x0a, 7	; 10
  c6:	02 c0       	rjmp	.+4      	; 0xcc <main+0xe>
  c8:	5f 9a       	sbi	0x0b, 7	; 11
  ca:	5a d0       	rcall	.+180    	; 0x180 <tarea_foreground>
  cc:	2f ef       	ldi	r18, 0xFF	; 255
  ce:	83 ed       	ldi	r24, 0xD3	; 211
  d0:	90 e3       	ldi	r25, 0x30	; 48
  d2:	21 50       	subi	r18, 0x01	; 1
  d4:	80 40       	sbci	r24, 0x00	; 0
  d6:	90 40       	sbci	r25, 0x00	; 0
  d8:	e1 f7       	brne	.-8      	; 0xd2 <main+0x14>
  da:	00 c0       	rjmp	.+0      	; 0xdc <main+0x1e>
  dc:	00 00       	nop
  de:	2c d0       	rcall	.+88     	; 0x138 <request>
  e0:	3c d0       	rcall	.+120    	; 0x15a <check_response>
  e2:	81 30       	cpi	r24, 0x01	; 1
  e4:	89 f7       	brne	.-30     	; 0xc8 <main+0xa>
  e6:	16 d0       	rcall	.+44     	; 0x114 <read_byte>
  e8:	08 2f       	mov	r16, r24
  ea:	14 d0       	rcall	.+40     	; 0x114 <read_byte>
  ec:	c8 2f       	mov	r28, r24
  ee:	12 d0       	rcall	.+36     	; 0x114 <read_byte>
  f0:	18 2f       	mov	r17, r24
  f2:	10 d0       	rcall	.+32     	; 0x114 <read_byte>
  f4:	d8 2f       	mov	r29, r24
  f6:	0e d0       	rcall	.+28     	; 0x114 <read_byte>
  f8:	2c 2f       	mov	r18, r28
  fa:	30 e0       	ldi	r19, 0x00	; 0
  fc:	20 0f       	add	r18, r16
  fe:	31 1d       	adc	r19, r1
 100:	21 0f       	add	r18, r17
 102:	31 1d       	adc	r19, r1
 104:	2d 0f       	add	r18, r29
 106:	31 1d       	adc	r19, r1
 108:	90 e0       	ldi	r25, 0x00	; 0
 10a:	28 17       	cp	r18, r24
 10c:	39 07       	cpc	r19, r25
 10e:	e9 f6       	brne	.-70     	; 0xca <main+0xc>
 110:	5e 9a       	sbi	0x0b, 6	; 11
 112:	db cf       	rjmp	.-74     	; 0xca <main+0xc>

Disassembly of section .text.I2C_Read:

00000232 <I2C_Read>:
 232:	84 e8       	ldi	r24, 0x84	; 132
 234:	80 93 bc 00 	sts	0x00BC, r24	; 0x8000bc <__TEXT_REGION_LENGTH__+0x7f80bc>
 238:	80 91 bc 00 	lds	r24, 0x00BC	; 0x8000bc <__TEXT_REGION_LENGTH__+0x7f80bc>
 23c:	87 ff       	sbrs	r24, 7
 23e:	fc cf       	rjmp	.-8      	; 0x238 <I2C_Read+0x6>
 240:	80 91 bb 00 	lds	r24, 0x00BB	; 0x8000bb <__TEXT_REGION_LENGTH__+0x7f80bb>
 244:	08 95       	ret

Disassembly of section .text.__vector_11:

00000248 <__vector_11>:
 248:	1f 92       	push	r1
 24a:	0f 92       	push	r0
 24c:	0f b6       	in	r0, 0x3f	; 63
 24e:	0f 92       	push	r0
 250:	11 24       	eor	r1, r1
 252:	8f 93       	push	r24
 254:	81 e0       	ldi	r24, 0x01	; 1
 256:	80 93 00 01 	sts	0x0100, r24	; 0x800100 <_edata>
 25a:	8f 91       	pop	r24
 25c:	0f 90       	pop	r0
 25e:	0f be       	out	0x3f, r0	; 63
 260:	0f 90       	pop	r0
 262:	1f 90       	pop	r1
 264:	18 95       	reti

Disassembly of section .text.init_reloj:

000001fa <init_reloj>:
 1fa:	e9 eb       	ldi	r30, 0xB9	; 185
 1fc:	f0 e0       	ldi	r31, 0x00	; 0
 1fe:	80 81       	ld	r24, Z
 200:	8c 7f       	andi	r24, 0xFC	; 252
 202:	80 83       	st	Z, r24
 204:	88 e4       	ldi	r24, 0x48	; 72
 206:	80 93 b8 00 	sts	0x00B8, r24	; 0x8000b8 <__TEXT_REGION_LENGTH__+0x7f80b8>
 20a:	84 e0       	ldi	r24, 0x04	; 4
 20c:	80 93 bc 00 	sts	0x00BC, r24	; 0x8000bc <__TEXT_REGION_LENGTH__+0x7f80bc>
 210:	e1 e8       	ldi	r30, 0x81	; 129
 212:	f0 e0       	ldi	r31, 0x00	; 0
 214:	80 81       	ld	r24, Z
 216:	8c 60       	ori	r24, 0x0C	; 12
 218:	80 83       	st	Z, r24
 21a:	83 e2       	ldi	r24, 0x23	; 35
 21c:	94 ef       	ldi	r25, 0xF4	; 244
 21e:	90 93 89 00 	sts	0x0089, r25	; 0x800089 <__TEXT_REGION_LENGTH__+0x7f8089>
 222:	80 93 88 00 	sts	0x0088, r24	; 0x800088 <__TEXT_REGION_LENGTH__+0x7f8088>
 226:	ef e6       	ldi	r30, 0x6F	; 111
 228:	f0 e0       	ldi	r31, 0x00	; 0
 22a:	80 81       	ld	r24, Z
 22c:	82 60       	ori	r24, 0x02	; 2
 22e:	80 83       	st	Z, r24
 230:	08 95       	ret

Disassembly of section .text.tarea_foreground:

00000180 <tarea_foreground>:
 180:	80 91 00 01 	lds	r24, 0x0100	; 0x800100 <_edata>
 184:	81 30       	cpi	r24, 0x01	; 1
 186:	19 f0       	breq	.+6      	; 0x18e <tarea_foreground+0xe>
 188:	80 91 00 01 	lds	r24, 0x0100	; 0x800100 <_edata>
 18c:	08 95       	ret
 18e:	10 92 00 01 	sts	0x0100, r1	; 0x800100 <_edata>
 192:	84 ea       	ldi	r24, 0xA4	; 164
 194:	80 93 bc 00 	sts	0x00BC, r24	; 0x8000bc <__TEXT_REGION_LENGTH__+0x7f80bc>
 198:	80 91 bc 00 	lds	r24, 0x00BC	; 0x8000bc <__TEXT_REGION_LENGTH__+0x7f80bc>
 19c:	87 ff       	sbrs	r24, 7
 19e:	fc cf       	rjmp	.-8      	; 0x198 <tarea_foreground+0x18>
 1a0:	80 ed       	ldi	r24, 0xD0	; 208
 1a2:	80 93 bb 00 	sts	0x00BB, r24	; 0x8000bb <__TEXT_REGION_LENGTH__+0x7f80bb>
 1a6:	84 e8       	ldi	r24, 0x84	; 132
 1a8:	80 93 bc 00 	sts	0x00BC, r24	; 0x8000bc <__TEXT_REGION_LENGTH__+0x7f80bc>
 1ac:	80 91 bc 00 	lds	r24, 0x00BC	; 0x8000bc <__TEXT_REGION_LENGTH__+0x7f80bc>
 1b0:	87 ff       	sbrs	r24, 7
 1b2:	fc cf       	rjmp	.-8      	; 0x1ac <tarea_foreground+0x2c>
 1b4:	10 92 bb 00 	sts	0x00BB, r1	; 0x8000bb <__TEXT_REGION_LENGTH__+0x7f80bb>
 1b8:	84 e8       	ldi	r24, 0x84	; 132
 1ba:	80 93 bc 00 	sts	0x00BC, r24	; 0x8000bc <__TEXT_REGION_LENGTH__+0x7f80bc>
 1be:	80 91 bc 00 	lds	r24, 0x00BC	; 0x8000bc <__TEXT_REGION_LENGTH__+0x7f80bc>
 1c2:	87 ff       	sbrs	r24, 7
 1c4:	fc cf       	rjmp	.-8      	; 0x1be <tarea_foreground+0x3e>
 1c6:	84 ea       	ldi	r24, 0xA4	; 164
 1c8:	80 93 bc 00 	sts	0x00BC, r24	; 0x8000bc <__TEXT_REGION_LENGTH__+0x7f80bc>
 1cc:	80 91 bc 00 	lds	r24, 0x00BC	; 0x8000bc <__TEXT_REGION_LENGTH__+0x7f80bc>
 1d0:	87 ff       	sbrs	r24, 7
 1d2:	fc cf       	rjmp	.-8      	; 0x1cc <tarea_foreground+0x4c>
 1d4:	81 ed       	ldi	r24, 0xD1	; 209
 1d6:	80 93 bb 00 	sts	0x00BB, r24	; 0x8000bb <__TEXT_REGION_LENGTH__+0x7f80bb>
 1da:	84 e8       	ldi	r24, 0x84	; 132
 1dc:	80 93 bc 00 	sts	0x00BC, r24	; 0x8000bc <__TEXT_REGION_LENGTH__+0x7f80bc>
 1e0:	80 91 bc 00 	lds	r24, 0x00BC	; 0x8000bc <__TEXT_REGION_LENGTH__+0x7f80bc>
 1e4:	87 ff       	sbrs	r24, 7
 1e6:	fc cf       	rjmp	.-8      	; 0x1e0 <tarea_foreground+0x60>
 1e8:	81 e0       	ldi	r24, 0x01	; 1
 1ea:	90 e0       	ldi	r25, 0x00	; 0
 1ec:	22 d0       	rcall	.+68     	; 0x232 <I2C_Read>
 1ee:	84 e9       	ldi	r24, 0x94	; 148
 1f0:	80 93 bc 00 	sts	0x00BC, r24	; 0x8000bc <__TEXT_REGION_LENGTH__+0x7f80bc>
 1f4:	80 91 00 01 	lds	r24, 0x0100	; 0x800100 <_edata>
 1f8:	08 95       	ret
